(dp1
S'output'
p2
S'The "end" tag is unmatched, please check if you have a starting "block" tag'
p3
sS'layer'
p4
S'ParserContainer'
p5
sS'code'
p6
S'{{extend \'navbar.html\'}}\n\t<link rel="stylesheet" href="{{=URL(\'static\',\'css/account.css\')}}"/>\n\t<link rel="stylesheet" href="https://cdnjs.cloudflare.com/ajax/libs/font-awesome/4.7.0/css/font-awesome.min.css">\n{{end}}\n<div class="profile_content">\n\n\t<h2><b>Profile</b></h2>\n\n<div class="container">\n    <div class="row">\n        <div id="web2py_user_form" class="col-lg-6">\n        <form action="#" class="form-horizontal" enctype="multipart/form-data" method="post">\n        \t<div class="form-group" id="auth_user_first_name__row">\n        \t\t<label class="control-label col-sm-3" for="auth_user_first_name" id="auth_user_first_name__label">First name</label>\n\t        \t<div class="col-sm-9">\n\t        \t\t<input class="form-control string" id="auth_user_first_name" name="first_name" type="text" value="Vivian " />\n\t        \t\t<span class="help-block"></span>\n\t        \t</div>\n        \t</div>\n        \t<div class="form-group" id="auth_user_last_name__row">\n        \t\t<label class="control-label col-sm-3" for="auth_user_last_name" id="auth_user_last_name__label">Last name</label>\n        \t\t<div class="col-sm-9">\n        \t\t\t<input class="form-control string" id="auth_user_last_name" name="last_name" type="text" value="Lu " />\n        \t\t\t<span class="help-block"></span>\n        \t\t</div>\n        \t</div>\n        \t<div class="form-group" id="auth_user_email__row">\n        \t\t<label class="control-label col-sm-3" for="auth_user_email" id="auth_user_email__label">E-mail</label>\n        \t\t<div class="col-sm-9">\n        \t\t\t<input class="form-control string" id="auth_user_email" name="email" type="text" value="hslu@ucsc.edu" />\n        \t\t\t<span class="help-block"></span>\n        \t\t</div>\n        \t</div>\n        \t<div class="form-group" id="submit_record__row">\n        \t\t<div class="col-sm-9 col-sm-offset-3">\n        \t\t\t<input class="btn btn-primary" type="submit" value="Apply changes" />\n        \t\t</div>\n        \t</div>\n        \t<div style="display:none;"><input name="_next" type="hidden" value="/start/default/index" /><input name="id" type="hidden" value="1" /><input name="_formkey" type="hidden" value="53d48fda-c134-444e-ae9d-0b1c976264d9" /><input name="_formname" type="hidden" value="profile" />\n        \t</div>\n        </form>\n        </div>\n    </div>\n</div>\n\n\n\n\t<script>\n\t    jQuery("#web2py_user_form input:visible:enabled:first").focus();\n\n\t</script>\n\n\t <script src="/start/static/js/marked.min.js"></script>\n\t <script src="/start/static/js/vue.min.js"></script>\n\t  \n\t <script>\n\t    jQuery(\'.social a\').each(function(){var t=jQuery(this); t.attr(\'href\',t.attr(\'href\').replace(\'{url}\',encodeURIComponent(window.location.href)));});\n\t </script>\n\t\t\n\n\n\n\n\n\n\n\n\n\n\n\n\n\n</div> '
p7
sS'snapshot'
p8
(dp9
S'exception'
p10
(dp11
S'__module__'
p12
S"'socket'"
p13
sS'__getslice__'
p14
S"<method-wrapper '__getslice__' of error object>"
p15
sS'__str__'
p16
S"<method-wrapper '__str__' of error object>"
p17
sS'__reduce__'
p18
S'<built-in method __reduce__ of error object>'
p19
sS'__dict__'
p20
S'{}'
p21
sS'__sizeof__'
p22
S'<built-in method __sizeof__ of error object>'
p23
sS'__weakref__'
p24
S'None'
p25
sS'message'
p26
S"''"
p27
sS'__init__'
p28
S"<method-wrapper '__init__' of error object>"
p29
sS'__setattr__'
p30
S"<method-wrapper '__setattr__' of error object>"
p31
sS'__reduce_ex__'
p32
S'<built-in method __reduce_ex__ of error object>'
p33
sS'__new__'
p34
S'<built-in method __new__ of type object>'
p35
sS'errno'
p36
S'54'
p37
sS'__format__'
p38
S'<built-in method __format__ of error object>'
p39
sS'__class__'
p40
S"<class 'socket.error'>"
p41
sS'filename'
p42
S'None'
p43
sS'__doc__'
p44
S'None'
p45
sS'__getitem__'
p46
S"<method-wrapper '__getitem__' of error object>"
p47
sS'__setstate__'
p48
S'<built-in method __setstate__ of error object>'
p49
sS'__getattribute__'
p50
S"<method-wrapper '__getattribute__' of error object>"
p51
sS'args'
p52
S"(54, 'Connection reset by peer')"
p53
sS'__subclasshook__'
p54
S'<built-in method __subclasshook__ of type object>'
p55
sS'__unicode__'
p56
S'<built-in method __unicode__ of error object>'
p57
sS'strerror'
p58
S"'Connection reset by peer'"
p59
sS'__delattr__'
p60
S"<method-wrapper '__delattr__' of error object>"
p61
sS'__repr__'
p62
S"<method-wrapper '__repr__' of error object>"
p63
sS'__hash__'
p64
S"<method-wrapper '__hash__' of error object>"
p65
ssS'evalue'
p66
S'[Errno 54] Connection reset by peer'
p67
sS'frames'
p68
(lp69
(dp70
S'file'
p71
S'/Users/Vivian/Desktop/CS183/web2py/gluon/rocket.py'
p72
sS'dump'
p73
(dp74
S'self'
p75
S'<WSGIWorker(Thread-11, started daemon 123145352482816)>'
p76
sS'conn'
p77
S'<gluon.rocket.Connection object>'
p78
sS'self.run_app'
p79
S'<bound method WSGIWorker.run_app of <WSGIWorker(Thread-11, started daemon 123145352482816)>>'
p80
ssS'lnum'
p81
I1319
sS'lines'
p82
(dp83
I1314
S'            # Enter connection serve loop'
p84
sI1315
S'            while True:'
p85
sI1316
S'                if __debug__:'
p86
sI1317
S"                    self.err_log.debug('Serving a request')"
p87
sI1318
S'                try:'
p88
sI1319
S'                    self.run_app(conn)'
p89
sI1320
S'                except:'
p90
sI1321
S'                    exc = sys.exc_info()'
p91
sI1322
S'                    handled = self._handleError(*exc)'
p92
sI1323
S'                    if handled:'
p93
ssS'call'
p94
S'(self=<WSGIWorker(Thread-11, started daemon 123145352482816)>)'
p95
sS'func'
p96
S'run'
p97
sa(dp98
g71
S'/Users/Vivian/Desktop/CS183/web2py/gluon/rocket.py'
p99
sg73
(dp100
S'self'
p101
S'<WSGIWorker(Thread-11, started daemon 123145352482816)>'
p102
sS'self.environ'
p103
S"{'HTTP_ACCEPT': 'text/html,application/xhtml+xml,application/xml;q=0.9,*/*;q=0.8', 'HTTP_ACCEPT_ENCODING': 'gzip, deflate', 'HTTP_ACCEPT_LANGUAGE': 'en-US,en;q=0.5', 'HTTP_CONNECTION': 'keep-alive', 'HTTP_COOKIE': 'session_id_project=127.0.0.1-5236af82-7a08-480e-...in=127.0.0.1-eb1934ef-7562-43a6-87f6-20bdae17089d', 'HTTP_HOST': '127.0.0.1:8000', 'HTTP_REFERER': 'http://127.0.0.1:8000/project/default/index', 'HTTP_UPGRADE_INSECURE_REQUESTS': '1', 'HTTP_USER_AGENT': 'Mozilla/5.0 (Macintosh; Intel Mac OS X 10.11; rv:59.0) Gecko/20100101 Firefox/59.0', 'PATH_INFO': '/project/default/account', ...}"
p104
sS'sock_file'
p105
S'<socket._fileobject object>'
p106
sS'environ'
p107
S'undefined'
p108
sS'self.build_environ'
p109
S'<bound method WSGIWorker.build_environ of <WSGIWorker(Thread-11, started daemon 123145352482816)>>'
p110
sS'conn'
p111
S'<gluon.rocket.Connection object>'
p112
ssg81
I1812
sg82
(dp113
I1807
S'        else:'
p114
sI1808
S'            sock_file = conn.makefile(BUF_SIZE)'
p115
sI1809
S''
sI1810
S'        try:'
p116
sI1811
S'            # Read the headers and build our WSGI environment'
p117
sI1812
S'            self.environ = environ = self.build_environ(sock_file, conn)'
p118
sI1813
S''
sI1814
S'            # Handle 100 Continue'
p119
sI1815
S"            if environ.get('HTTP_EXPECT', '') == '100-continue':"
p120
sI1816
S"                res = environ['SERVER_PROTOCOL'] + ' 100 Continue\\r\\n\\r\\n'"
p121
ssg94
S'(self=<WSGIWorker(Thread-11, started daemon 123145352482816)>, conn=<gluon.rocket.Connection object>)'
p122
sg96
S'run_app'
p123
sa(dp124
g71
S'/Users/Vivian/Desktop/CS183/web2py/gluon/rocket.py'
p125
sg73
(dp126
S'sock_file'
p127
S'<socket._fileobject object>'
p128
sS'self.read_request_line'
p129
S'<bound method WSGIWorker.read_request_line of <W...rker(Thread-11, started daemon 123145352482816)>>'
p130
sS'self'
p131
S'<WSGIWorker(Thread-11, started daemon 123145352482816)>'
p132
sS'request'
p133
g108
ssg81
I1632
sg82
(dp134
I1632
S'        request = self.read_request_line(sock_file)'
p135
sI1633
S''
sI1634
S'        # Copy the Base Environment'
p136
sI1635
S'        environ = self.base_environ.copy()'
p137
sI1636
S''
sI1627
S'                                      "wsgiorg.futures": executor.futures})'
p138
sI1628
S''
sI1629
S'    def build_environ(self, sock_file, conn):'
p139
sI1630
S'        """ Build the execution environment. """'
p140
sI1631
S'        # Grab the request line'
p141
ssg94
S'(self=<WSGIWorker(Thread-11, started daemon 123145352482816)>, sock_file=<socket._fileobject object>, conn=<gluon.rocket.Connection object>)'
p142
sg96
S'build_environ'
p143
sa(dp144
g71
S'/Users/Vivian/Desktop/CS183/web2py/gluon/rocket.py'
p145
sg73
(dp146
S'sock_file'
p147
S'<socket._fileobject object>'
p148
sS'sock_file.readline'
p149
S'<bound method _fileobject.readline of <socket._fileobject object>>'
p150
sS'd'
g108
ssg81
I1370
sg82
(dp151
I1365
S''
sI1366
S'    def read_request_line(self, sock_file):'
p152
sI1367
S"        self.request_line = ''"
p153
sI1368
S'        try:'
p154
sI1369
S'            # Grab the request line'
p155
sI1370
S'            d = sock_file.readline()'
p156
sI1371
S'            if PY3K:'
p157
sI1372
S"                d = d.decode('ISO-8859-1')"
p158
sI1373
S''
sI1374
S"            if d == '\\r\\n':"
p159
ssg94
S'(self=<WSGIWorker(Thread-11, started daemon 123145352482816)>, sock_file=<socket._fileobject object>)'
p160
sg96
S'read_request_line'
p161
sa(dp162
g71
S'/anaconda2/lib/python2.7/socket.py'
p163
sg73
(dp164
S'self._sock.recv'
p165
g108
sS'self._sock'
p166
S'None'
p167
sS'self'
p168
S'<socket._fileobject object>'
p169
sS'self._rbufsize'
p170
S'8192'
p171
sS'data'
p172
g108
ssg81
I451
sg82
(dp173
I448
S'            self._rbuf = StringIO()  # reset _rbuf.  we consume it via buf.'
p174
sI449
S'            while True:'
p175
sI450
S'                try:'
p176
sI451
S'                    data = self._sock.recv(self._rbufsize)'
p177
sI452
S'                except error, e:'
p178
sI453
S'                    if e.args[0] == EINTR:'
p179
sI454
S'                        continue'
p180
sI455
S'                    raise'
p181
sI446
S''
sI447
S'            buf.seek(0, 2)  # seek end'
p182
ssg94
S'(self=<socket._fileobject object>, size=-1)'
p183
sg96
S'readline'
p184
sasS'pyver'
p185
S'Python 2.7.14: /anaconda2/bin/python (prefix: /anaconda2)'
p186
sS'etype'
p187
S"<class 'socket.error'>"
p188
sS'date'
p189
S'Thu Jun  7 11:08:28 2018'
p190
sS'locals'
p191
(dp192
S'e'
S"error(54, 'Connection reset by peer')"
p193
sS'self'
p194
S'<socket._fileobject object>'
p195
sS'buf'
p196
S'<cStringIO.StringO object>'
p197
sS'size'
p198
S'-1'
p199
sssS'traceback'
p200
S'Traceback (most recent call last):\n  File "/Users/Vivian/Desktop/CS183/web2py/gluon/rocket.py", line 1319, in run\n    self.run_app(conn)\n  File "/Users/Vivian/Desktop/CS183/web2py/gluon/rocket.py", line 1812, in run_app\n    self.environ = environ = self.build_environ(sock_file, conn)\n  File "/Users/Vivian/Desktop/CS183/web2py/gluon/rocket.py", line 1632, in build_environ\n    request = self.read_request_line(sock_file)\n  File "/Users/Vivian/Desktop/CS183/web2py/gluon/rocket.py", line 1370, in read_request_line\n    d = sock_file.readline()\n  File "/anaconda2/lib/python2.7/socket.py", line 451, in readline\n    data = self._sock.recv(self._rbufsize)\nerror: [Errno 54] Connection reset by peer\n'
p201
s.