(dp1
S'output'
p2
S'missing "pass" in view'
p3
sS'layer'
p4
S'ParserContainer'
p5
sS'code'
p6
S'response.write(\'<!DOCTYPE html>\\n\\t<head>\\n\\t\\t<!-- include stylesheets -->\\n        <link rel="stylesheet" href="\', escape=False)\nresponse.write(URL(\'static\',\'css/bootstrap.min.css\'))\nresponse.write(\'"/>\\n        <link rel="stylesheet" href="\', escape=False)\nresponse.write(URL(\'static\',\'css/web2py-bootstrap4.css\'))\nresponse.write(\'"/>\\n\\n\\t\\t<link rel="stylesheet" href="\', escape=False)\nresponse.write(URL(\'static\',\'css/account.css\'))\nresponse.write(\'"/>\\n\\t\\t<link href="\', escape=False)\nresponse.write(URL(\'static\',\'css/navbar.css\'))\nresponse.write(\'" rel="stylesheet" type="text/css"/>\\n\\t\\t<link href="\', escape=False)\nresponse.write(URL(\'static\',\'css/footer.css\'))\nresponse.write(\'" rel="stylesheet" type="text/css"/>\\n\\t\\t<link href="\', escape=False)\nresponse.write(URL(\'static\',\'css/menu.css\'))\nresponse.write(\'" rel="stylesheet" type="text/css"/>\\n\\t\\t\\n        <link rel="shortcut icon" href="\', escape=False)\nresponse.write(URL(\'static\',\'images/favicon.ico\'))\nresponse.write(\'" type="image/x-icon">\\n        <link rel="apple-touch-icon" href="\', escape=False)\nresponse.write(URL(\'static\',\'images/favicon.png\'))\nresponse.write(\'">\\n\\t\\t\\n        <link rel="stylesheet" media="screen and (min-width:601px)" href="\', escape=False)\nresponse.write(URL(\'static\', \'css/desktop.css\'))\nresponse.write(\'"/>\\n        <link rel="stylesheet" media="screen and (max-width:600px)" href="\', escape=False)\nresponse.write(URL(\'static\', \'css/mobile.css\'))\nresponse.write(\'"/>\\n\\t\\t\\n        <script src="https://use.fontawesome.com/8c6f68fcc5.js"></script>\\n        <script src="\', escape=False)\nresponse.write(URL(\'static\',\'js/modernizr-2.8.3.min.js\'))\nresponse.write(\'"></script>\\n        <script src=\', escape=False)\nresponse.write(URL(\'static\',\'js/main.js\'))\nresponse.write(\'></script>\\n\\t\\t\', escape=False)\nresponse.write(\'<script type="text/javascript"><!--\\n    // These variables are used by the web2py_ajax_init function in web2py_ajax.js (which is loaded below).\\n    \', escape=False)\nresponse.write(ASSIGNJS(\nw2p_ajax_confirm_message = T(\'Are you sure you want to delete this object?\'),\nw2p_ajax_disable_with_message = T(\'Working...\'),\nw2p_ajax_date_format = T(\'%Y-%m-%d\'),\nw2p_ajax_datetime_format = T(\'%Y-%m-%d %H:%M:%S\'),\najax_error_500 = T.M(\'An error occured, please [[reload %s]] the page\') % URL(args=request.args, vars=request.get_vars)\n))\nresponse.write(\'\\n    //--></script>\\n\', escape=False)\nresponse.files.insert(0,URL(\'static\',\'js/jquery.js\'))\nresponse.files.insert(1,URL(\'static\',\'css/calendar.css\'))\nresponse.files.insert(2,URL(\'static\',\'js/calendar.js\'))\nresponse.files.insert(3,URL(\'static\',\'js/web2py.js\'))\nresponse.include_meta()\nresponse.include_files()\nresponse.write(\'\\n\', escape=False)\nresponse.write(\'\\n\\t</head>\\n\\t\\n\\t<body style="background-color:lightgray;">\\n\\t\\t<nav id="sidebar">\\n\\t\\t\\t<a class="menu btn sidebar" onclick="closeNav()"><i class="fa fa-bars fa-3x"></i></a>\\n            <div id="sidebar-container">\\n                <ul class="sidebar links">\\n                    <li class="highlight"><a href="\', escape=False)\nresponse.write(URL(\'default\',\'index\'))\nresponse.write(\'"><i class="fa fa-home"></i>&nbsp;&nbsp;Home</a></li>\\n                    <li class="highlight"><a href="\', escape=False)\nresponse.write(URL(\'default\',\'menu\'))\nresponse.write(\'"><i class="fa fa-cutlery"></i>&nbsp;&nbsp;Menu</a></li>\\n                    <li class="highlight"><a href="\', escape=False)\nresponse.write(URL(\'default\',\'index#faq\'))\nresponse.write(\'"><i class="fa fa-question"></i>&nbsp;&nbsp;FAQ</a></li>\\n                </ul>\\n            </div>\\n        </nav>\\n\\t\\t\\n\\t\\t<header class="blue">\\n\\t\\t\\t<div class="navbar" id="navbar">\\n\\t\\t\\t\\t<div class="navbar container">\\n\\t\\t\\t\\t\\t<!-- Expand Menu Icon -->\\n\\t\\t\\t\\t\\t<div class="menu btn" onclick="openNav()"><i class="fa fa-bars fa-3x"></i></div>\\n\\t\\t\\t\\t\\t<!-- BJ\\\'s Logo -->\\n\\t\\t\\t\\t\\t<div class="navbar logo btn" id="logo_container">\\n\\t\\t\\t\\t\\t\\t<a href="\', escape=False)\nresponse.write(URL(\'default\',\'index\'))\nresponse.write(\'"><img src="\', escape=False)\nresponse.write(URL(\'static\',\'images/bj3.png\'))\nresponse.write(\'" class="logo"/> </a>\\n\\t\\t\\t\\t\\t</div>\\n\\t\\t\\t\\t\\t\', escape=False)\nif auth.user is None:\n    response.write(\'\\n\\t\\t\\t\\t\\t\\t<p>Please log in</p> \\n\\t\\t\\t\\t\\t\', escape=False)\nelse:\n    response.write(\'\\n\\t\\t\\t\\t\\t\\t<p>Welcome ${user.first_name}</p>\\n\\t\\t\\t\\t\\t<!-- Account Icon -->\\n\\t\\t\\t\\t\\t<ul class="menu right">\\n\\t\\t              <li>\', escape=False)\n    response.write(auth.navbar(mode=\'dropdown\'))\n    response.write(\'\\n\\t\\t              \\t<a class="account btn expand" href="\', escape=False)\n    response.write(URL(\'default\',\'user\'))\n    response.write(\'"><i class="fa fa-user fa-3x"></i> \\n\\t\\t              \\t</a>\\n\\t\\t             </li>\\n           \\t\\t\\t</ul>\\n\\t\\t\\t\\t\\t\\n\\t\\t\\t\\t\\t<!-- Cart Icon -->\\n\\t\\t\\t\\t\\t<a class="cart btn expand" href="\', escape=False)\n    response.write(URL(\'default\',\'cart\'))\n    response.write(\'"><i class="fa fa-shopping-cart fa-3x"></i></a>\\n\\t\\t\\t\\t</div>\\n\\t\\t\\t</div>\\n\\t\\t</header>\\n\\t\\n\\t\\t<main id="main" onclick="closeNav()">\\n\\t\\t\', escape=False)\n    response.write(\'\\n\\n<h2>\\n\', escape=False)\n    response.write(T(\'Sign Up\') if request.args(0) == \'register\' else T(\'Log In\') if request.args(0) == \'login\' else T(request.args(0).replace(\'_\',\' \').title()))\n    response.write(\'\\n</h2>\\n\\n<div class="container">\\n    <div class="row">\\n        <div id="web2py_user_form" class="col-lg-6">\\n        \', escape=False)\n    if request.args(0)==\'login\':\n        if not \'register\' in auth.settings.actions_disabled:\n            form.add_button(T(\'Sign Up\'),URL(args=\'register\', vars={\'_next\': request.vars._next} if request.vars._next else None),_class=\'btn btn-default\')\n            pass\n        if not \'request_reset_password\' in auth.settings.actions_disabled:\n            form.add_button(T(\'Lost Password\'),URL(args=\'request_reset_password\'),_class=\'btn btn-default\')\n            pass\n        pass\n    response.write(form)\n    response.write(\'\\n        </div>\\n    </div>\\n</div>\\n\\n\\n\', escape=False)\n    response.write(\'\\n<script>\\n    jQuery("#web2py_user_form input:visible:enabled:first").focus();\\n\', escape=False)\n    if request.args(0)==\'register\':\n        response.write("\\n    web2py_validate_entropy(jQuery(\'#auth_user_password\'),100);\\n", escape=False)\n    elif request.args(0)==\'change_password\':\n        response.write("\\n    web2py_validate_entropy(jQuery(\'#no_table_new_password\'),100);\\n", escape=False)\n        pass\n    response.write(\'\\n</script>\\n\', escape=False)\n    response.write(\'\\n\', escape=False)\n    response.write(\'\\n\\t\\t</main>\\n\\n            <footer class="ft">\\n\\t\\t    <div class="bot-text">\\n                <p>Banana Joe\\\'s is managed by UCSC Dining.<br />\\n                Do you have questions, comments, or concerns? Please feel free to contact us or\\n                fill out a comment card online. <a href="#">Contact Us</a>&nbsp;|&nbsp;<a href="#">Dining\\n                Comment Card</a></p>\\n            </div>\\n            <div class="bot-bar">\\n                <div class="bot-text">\\n                    &copy; <script type="text/javascript">\\n                    var d = new Date();\\n                    document.write(d.getFullYear());\\n                    </script> Banana Joe\\\'s. All Rights Reserved.\\n                    <a href="#" class="terms">Terms of Service</a>\\n                    <a href="#" class="privacy">Privacy Statement</a>\\n                </div>\\n            </div>\\n        </footer>\\n\\t</body>\\n    <script src="\', escape=False)\n    response.write(URL(\'static\',\'js/marked.min.js\'))\n    response.write(\'"></script>\\n    <script src="\', escape=False)\n    response.write(URL(\'static\',\'js/vue.min.js\'))\n    response.write(\'"></script>\\n    \', escape=False)\n    response.write("\\n    <script>\\n        jQuery(\'.social a\').each(function(){var t=jQuery(this); t.attr(\'href\',t.attr(\'href\').replace(\'{url}\',encodeURIComponent(window.location.href)));});\\n    </script>\\n</html>\\n", escape=False)'
p7
sS'snapshot'
p8
(dp9
S'exception'
p10
(dp11
S'__module__'
p12
S"'gluon.rocket'"
p13
sS'__getslice__'
p14
S"<method-wrapper '__getslice__' of SocketTimeout object>"
p15
sS'__str__'
p16
S"<method-wrapper '__str__' of SocketTimeout object>"
p17
sS'__reduce__'
p18
S'<built-in method __reduce__ of SocketTimeout object>'
p19
sS'__dict__'
p20
S'{}'
p21
sS'__sizeof__'
p22
S'<built-in method __sizeof__ of SocketTimeout object>'
p23
sS'__weakref__'
p24
S'None'
p25
sS'message'
p26
S"'Socket timed out before request.'"
p27
sS'__init__'
p28
S"<method-wrapper '__init__' of SocketTimeout object>"
p29
sS'__setattr__'
p30
S"<method-wrapper '__setattr__' of SocketTimeout object>"
p31
sS'__reduce_ex__'
p32
S'<built-in method __reduce_ex__ of SocketTimeout object>'
p33
sS'__new__'
p34
S'<built-in method __new__ of type object>'
p35
sS'__format__'
p36
S'<built-in method __format__ of SocketTimeout object>'
p37
sS'__class__'
p38
S"<class 'gluon.rocket.SocketTimeout'>"
p39
sS'__doc__'
p40
S"'Exception for when a socket times out between requests.'"
p41
sS'__getitem__'
p42
S"<method-wrapper '__getitem__' of SocketTimeout object>"
p43
sS'__setstate__'
p44
S'<built-in method __setstate__ of SocketTimeout object>'
p45
sS'__getattribute__'
p46
S"<method-wrapper '__getattribute__' of SocketTimeout object>"
p47
sS'args'
p48
S"('Socket timed out before request.',)"
p49
sS'__subclasshook__'
p50
S'<built-in method __subclasshook__ of type object>'
p51
sS'__unicode__'
p52
S'<built-in method __unicode__ of SocketTimeout object>'
p53
sS'__delattr__'
p54
S"<method-wrapper '__delattr__' of SocketTimeout object>"
p55
sS'__repr__'
p56
S"<method-wrapper '__repr__' of SocketTimeout object>"
p57
sS'__hash__'
p58
S"<method-wrapper '__hash__' of SocketTimeout object>"
p59
ssS'evalue'
p60
S'Socket timed out before request.'
p61
sS'frames'
p62
(lp63
(dp64
S'file'
p65
S'/Users/Vivian/Desktop/CS183/web2py/gluon/rocket.py'
p66
sS'dump'
p67
(dp68
S'self'
p69
S'<WSGIWorker(Thread-8, started daemon 123145339326464)>'
p70
sS'conn'
p71
S'<gluon.rocket.Connection object>'
p72
sS'self.run_app'
p73
S'<bound method WSGIWorker.run_app of <WSGIWorker(Thread-8, started daemon 123145339326464)>>'
p74
ssS'lnum'
p75
I1319
sS'lines'
p76
(dp77
I1314
S'            # Enter connection serve loop'
p78
sI1315
S'            while True:'
p79
sI1316
S'                if __debug__:'
p80
sI1317
S"                    self.err_log.debug('Serving a request')"
p81
sI1318
S'                try:'
p82
sI1319
S'                    self.run_app(conn)'
p83
sI1320
S'                except:'
p84
sI1321
S'                    exc = sys.exc_info()'
p85
sI1322
S'                    handled = self._handleError(*exc)'
p86
sI1323
S'                    if handled:'
p87
ssS'call'
p88
S'(self=<WSGIWorker(Thread-8, started daemon 123145339326464)>)'
p89
sS'func'
p90
S'run'
p91
sa(dp92
g65
S'/Users/Vivian/Desktop/CS183/web2py/gluon/rocket.py'
p93
sg67
(dp94
S'self'
p95
S'<WSGIWorker(Thread-8, started daemon 123145339326464)>'
p96
sS'self.environ'
p97
S"{'HTTP_ACCEPT': 'text/html,application/xhtml+xml,application/xml;q=0.9,*/*;q=0.8', 'HTTP_ACCEPT_ENCODING': 'gzip, deflate', 'HTTP_ACCEPT_LANGUAGE': 'en-us', 'HTTP_CONNECTION': 'keep-alive', 'HTTP_COOKIE': 'session_id_admin=127.0.0.1-61aacdc5-be64-4599-af...me=127.0.0.1-91900948-946f-480c-a824-d443aa87e3ce', 'HTTP_HOST': '127.0.0.1:8000', 'HTTP_UPGRADE_INSECURE_REQUESTS': '1', 'HTTP_USER_AGENT': 'Mozilla/5.0 (Macintosh; Intel Mac OS X 10_11_6) ... (KHTML, like Gecko) Version/11.0 Safari/604.1.38', 'PATH_INFO': '/project/default/user/login', 'QUERY_STRING': '', ...}"
p98
sS'sock_file'
p99
S'<socket._fileobject object>'
p100
sS'environ'
p101
S'undefined'
p102
sS'self.build_environ'
p103
S'<bound method WSGIWorker.build_environ of <WSGIWorker(Thread-8, started daemon 123145339326464)>>'
p104
sS'conn'
p105
S'<gluon.rocket.Connection object>'
p106
ssg75
I1812
sg76
(dp107
I1807
S'        else:'
p108
sI1808
S'            sock_file = conn.makefile(BUF_SIZE)'
p109
sI1809
S''
sI1810
S'        try:'
p110
sI1811
S'            # Read the headers and build our WSGI environment'
p111
sI1812
S'            self.environ = environ = self.build_environ(sock_file, conn)'
p112
sI1813
S''
sI1814
S'            # Handle 100 Continue'
p113
sI1815
S"            if environ.get('HTTP_EXPECT', '') == '100-continue':"
p114
sI1816
S"                res = environ['SERVER_PROTOCOL'] + ' 100 Continue\\r\\n\\r\\n'"
p115
ssg88
S'(self=<WSGIWorker(Thread-8, started daemon 123145339326464)>, conn=<gluon.rocket.Connection object>)'
p116
sg90
S'run_app'
p117
sa(dp118
g65
S'/Users/Vivian/Desktop/CS183/web2py/gluon/rocket.py'
p119
sg67
(dp120
S'sock_file'
p121
S'<socket._fileobject object>'
p122
sS'self.read_request_line'
p123
S'<bound method WSGIWorker.read_request_line of <W...orker(Thread-8, started daemon 123145339326464)>>'
p124
sS'self'
p125
S'<WSGIWorker(Thread-8, started daemon 123145339326464)>'
p126
sS'request'
p127
g102
ssg75
I1632
sg76
(dp128
I1632
S'        request = self.read_request_line(sock_file)'
p129
sI1633
S''
sI1634
S'        # Copy the Base Environment'
p130
sI1635
S'        environ = self.base_environ.copy()'
p131
sI1636
S''
sI1627
S'                                      "wsgiorg.futures": executor.futures})'
p132
sI1628
S''
sI1629
S'    def build_environ(self, sock_file, conn):'
p133
sI1630
S'        """ Build the execution environment. """'
p134
sI1631
S'        # Grab the request line'
p135
ssg88
S'(self=<WSGIWorker(Thread-8, started daemon 123145339326464)>, sock_file=<socket._fileobject object>, conn=<gluon.rocket.Connection object>)'
p136
sg90
S'build_environ'
p137
sa(dp138
g65
S'/Users/Vivian/Desktop/CS183/web2py/gluon/rocket.py'
p139
sg67
(dp140
S'global SocketTimeout'
p141
S"<class 'gluon.rocket.SocketTimeout'>"
p142
ssg75
I1383
sg76
(dp143
I1378
S''
sI1379
S'                d = sock_file.readline()'
p144
sI1380
S'                if PY3K:'
p145
sI1381
S"                    d = d.decode('ISO-8859-1')"
p146
sI1382
S'        except socket.timeout:'
p147
sI1383
S"            raise SocketTimeout('Socket timed out before request.')"
p148
sI1384
S'        except TypeError:'
p149
sI1385
S'            raise SocketClosed('
p150
sI1386
S"                'SSL bug caused closure of socket.  See '"
p151
sI1387
S'                \'"https://groups.google.com/d/topic/web2py/P_Gw0JxWzCs".\')'
p152
ssg88
S'(self=<WSGIWorker(Thread-8, started daemon 123145339326464)>, sock_file=<socket._fileobject object>)'
p153
sg90
S'read_request_line'
p154
sasS'pyver'
p155
S'Python 2.7.14: /anaconda2/bin/python (prefix: /anaconda2)'
p156
sS'etype'
p157
S"<class 'gluon.rocket.SocketTimeout'>"
p158
sS'date'
p159
S'Tue Jun  5 17:33:31 2018'
p160
sS'locals'
p161
(dp162
S'sock_file'
p163
S'<socket._fileobject object>'
p164
sS'self'
p165
S'<WSGIWorker(Thread-8, started daemon 123145339326464)>'
p166
sssS'traceback'
p167
S'Traceback (most recent call last):\n  File "/Users/Vivian/Desktop/CS183/web2py/gluon/rocket.py", line 1319, in run\n    self.run_app(conn)\n  File "/Users/Vivian/Desktop/CS183/web2py/gluon/rocket.py", line 1812, in run_app\n    self.environ = environ = self.build_environ(sock_file, conn)\n  File "/Users/Vivian/Desktop/CS183/web2py/gluon/rocket.py", line 1632, in build_environ\n    request = self.read_request_line(sock_file)\n  File "/Users/Vivian/Desktop/CS183/web2py/gluon/rocket.py", line 1383, in read_request_line\n    raise SocketTimeout(\'Socket timed out before request.\')\nSocketTimeout: Socket timed out before request.\n'
p168
s.