(dp1
S'output'
p2
S'missing "pass" in view'
p3
sS'layer'
p4
S'ParserContainer'
p5
sS'code'
p6
S'response.write(\'<!DOCTYPE html>\\n\\t<head>\\n\\t\\t<!-- include stylesheets -->\\n        <link rel="stylesheet" href="\', escape=False)\nresponse.write(URL(\'static\',\'css/bootstrap.min.css\'))\nresponse.write(\'"/>\\n        <link rel="stylesheet" href="\', escape=False)\nresponse.write(URL(\'static\',\'css/web2py-bootstrap4.css\'))\nresponse.write(\'"/>\\n\\n\\t\\t<link rel="stylesheet" href="\', escape=False)\nresponse.write(URL(\'static\',\'css/account.css\'))\nresponse.write(\'"/>\\n\\t\\t<link href="\', escape=False)\nresponse.write(URL(\'static\',\'css/navbar.css\'))\nresponse.write(\'" rel="stylesheet" type="text/css"/>\\n\\t\\t<link href="\', escape=False)\nresponse.write(URL(\'static\',\'css/footer.css\'))\nresponse.write(\'" rel="stylesheet" type="text/css"/>\\n\\t\\t<link href="\', escape=False)\nresponse.write(URL(\'static\',\'css/menu.css\'))\nresponse.write(\'" rel="stylesheet" type="text/css"/>\\n\\t\\t\\n        <link rel="shortcut icon" href="\', escape=False)\nresponse.write(URL(\'static\',\'images/favicon.ico\'))\nresponse.write(\'" type="image/x-icon">\\n        <link rel="apple-touch-icon" href="\', escape=False)\nresponse.write(URL(\'static\',\'images/favicon.png\'))\nresponse.write(\'">\\n\\t\\t\\n        <link rel="stylesheet" media="screen and (min-width:601px)" href="\', escape=False)\nresponse.write(URL(\'static\', \'css/desktop.css\'))\nresponse.write(\'"/>\\n        <link rel="stylesheet" media="screen and (max-width:600px)" href="\', escape=False)\nresponse.write(URL(\'static\', \'css/mobile.css\'))\nresponse.write(\'"/>\\n\\t\\t\\n        <script src="https://use.fontawesome.com/8c6f68fcc5.js"></script>\\n        <script src="\', escape=False)\nresponse.write(URL(\'static\',\'js/modernizr-2.8.3.min.js\'))\nresponse.write(\'"></script>\\n        <script src=\', escape=False)\nresponse.write(URL(\'static\',\'js/main.js\'))\nresponse.write(\'></script>\\n\\t\\t\', escape=False)\nresponse.write(\'<script type="text/javascript"><!--\\n    // These variables are used by the web2py_ajax_init function in web2py_ajax.js (which is loaded below).\\n    \', escape=False)\nresponse.write(ASSIGNJS(\nw2p_ajax_confirm_message = T(\'Are you sure you want to delete this object?\'),\nw2p_ajax_disable_with_message = T(\'Working...\'),\nw2p_ajax_date_format = T(\'%Y-%m-%d\'),\nw2p_ajax_datetime_format = T(\'%Y-%m-%d %H:%M:%S\'),\najax_error_500 = T.M(\'An error occured, please [[reload %s]] the page\') % URL(args=request.args, vars=request.get_vars)\n))\nresponse.write(\'\\n    //--></script>\\n\', escape=False)\nresponse.files.insert(0,URL(\'static\',\'js/jquery.js\'))\nresponse.files.insert(1,URL(\'static\',\'css/calendar.css\'))\nresponse.files.insert(2,URL(\'static\',\'js/calendar.js\'))\nresponse.files.insert(3,URL(\'static\',\'js/web2py.js\'))\nresponse.include_meta()\nresponse.include_files()\nresponse.write(\'\\n\', escape=False)\nresponse.write(\'\\n\\t</head>\\n\\t\\n\\t<body style="background-color:lightgray;">\\n\\t\\t<nav id="sidebar">\\n\\t\\t\\t<a class="menu btn sidebar" onclick="closeNav()"><i class="fa fa-bars fa-3x"></i></a>\\n            <div id="sidebar-container">\\n                <ul class="sidebar links">\\n                    <li class="highlight"><a href="\', escape=False)\nresponse.write(URL(\'default\',\'index\'))\nresponse.write(\'"><i class="fa fa-home"></i>&nbsp;&nbsp;Home</a></li>\\n                    <li class="highlight"><a href="\', escape=False)\nresponse.write(URL(\'default\',\'menu\'))\nresponse.write(\'"><i class="fa fa-cutlery"></i>&nbsp;&nbsp;Menu</a></li>\\n                    <li class="highlight"><a href="\', escape=False)\nresponse.write(URL(\'default\',\'index#faq\'))\nresponse.write(\'"><i class="fa fa-question"></i>&nbsp;&nbsp;FAQ</a></li>\\n                </ul>\\n            </div>\\n        </nav>\\n\\t\\t\\n\\t\\t<header class="blue">\\n\\t\\t\\t<div class="navbar" id="navbar">\\n\\t\\t\\t\\t<div class="navbar container">\\n\\t\\t\\t\\t\\t<!-- Expand Menu Icon -->\\n\\t\\t\\t\\t\\t<div class="menu btn" onclick="openNav()"><i class="fa fa-bars fa-3x"></i></div>\\n\\t\\t\\t\\t\\t<!-- BJ\\\'s Logo -->\\n\\t\\t\\t\\t\\t<div class="navbar logo btn" id="logo_container">\\n\\t\\t\\t\\t\\t\\t<a href="\', escape=False)\nresponse.write(URL(\'default\',\'index\'))\nresponse.write(\'"><img src="\', escape=False)\nresponse.write(URL(\'static\',\'images/bj3.png\'))\nresponse.write(\'" class="logo"/> </a>\\n\\t\\t\\t\\t\\t</div>\\n\\t\\t\\t\\t\\t<!-- Account Icon -->\\n\\t\\t\\t\\t\\t<ul class="menu right">\\n\\t\\t              <li>\', escape=False)\nresponse.write(auth.navbar(mode=\'dropdown\'))\nresponse.write(\'\\n\\t\\t              \\t<a class="account btn expand" href="\', escape=False)\nresponse.write(URL(\'default\',\'user\'))\nresponse.write(\'"><i class="fa fa-user fa-3x"></i> \\n\\t\\t              \\t</a>\\n\\t\\t             </li>\\n           \\t\\t\\t</ul>\\n\\t\\t\\t\\t\\t\\n\\t\\t\\t\\t\\t<!-- Cart Icon -->\\n\\t\\t\\t\\t\\t<a class="cart btn expand" href="\', escape=False)\nresponse.write(URL(\'default\',\'cart\'))\nresponse.write(\'"><i class="fa fa-shopping-cart fa-3x"></i></a>\\n\\t\\t\\t\\t</div>\\n\\t\\t\\t</div>\\n\\t\\t</header>\\n\\t\\n\\t\\t<main id="main" onclick="closeNav()">\\n\\t\\t\', escape=False)\nresponse.write(\'\\n    <link href="https://fonts.googleapis.com/css?family=Yesteryear" rel="stylesheet">\\n    <link rel="stylesheet" href="https://cdnjs.cloudflare.com/ajax/libs/font-awesome/4.7.0/css/font-awesome.min.css">\\n    <script src=\', escape=False)\nresponse.write(URL(\'static\',\'js/account.js\'))\nresponse.write(\'></script>\\n\', escape=False)\nresponse.write(\'\\n\', escape=False)\nresponse.write(\'\\n<!--\\nColor Palette\\nhttp://paletton.com/#uid=30v0u0kbJgs6Kqq9Jlgg2c7lHap\\nBrown: 836953\\nBlue: 3B4358\\nGreen: 416743\\n-->\\n\', escape=False)\nif auth.user is None:\n    response.write(\'\\n    <div class="media">\\n        <div class="album">\\n            <img class="album-image" src=""/>\\n            <img class="album-image" src=""/>\\n            <img class="album-image" src=""/>\\n            <img class="album-image" src=""/>\\n        </div>\\n    </div>\\n    <div class="info">\\n        <div class="hours">\\n            <i class="center fa fa-clock-o fa-2x"></i>\\n            <h1 class="center">Hours</h1>\\n            <table>\\n                <tr><th>Day</th><th>Hours</th></tr>\\n                <tr><td>Monday</td><td>10AM - 11PM</td></tr>\\n                <tr><td>Tuesday</td><td>10AM - 11PM</td></tr>\\n                <tr><td>Wednesday</td><td>10AM - 11PM</td></tr>\\n                <tr><td>Thursday</td><td>10AM - 11PM</td></tr>\\n                <tr><td>Friday</td><td>10AM - 3PM</td></tr>\\n                <tr><td>Saturday</td><td>Closed</td></tr>\\n                <tr><td>Sunday</td><td>Closed</td></tr>\\n            </table>\\n        </div>\\n        <div class="location">\\n            <h1 class="center">Location</h1>\\n            <div class="map">\\n                <iframe src="https://www.google.com/maps/embed?pb=!1m18!1m12!1m3!1d3186.4109672742848!2d-122.05661768473449!3d36.999990979907906!2m3!1f0!2f0!3f0!3m2!1i1024!2i768!4f13.1!3m3!1m2!1s0x808e41a744ec8751%3A0x5618ffd70e784ec1!2sBanana+Joe&#39;s!5e0!3m2!1sen!2sus!4v1525461490280" width="600" height="450" frameborder="0" style="border:0" allowfullscreen></iframe>\\n            </div>\\n        </div>\\n        <div class="misc">\\n            <h1 class="center">Info</h1>\\n            <p>Located near the Crown College fountain this cafe and convenience store has everything you\\n                need all in one place. Banana Joe\\\'s also coordinates the UCSC online grocery. Cash, credit\\n                cards, flexi dollars, and meal equivalencies accepted. <a href="https://dining.ucsc.edu/eat/">Read More</a></p><br />\\n            <h1 class="center"><i class="fa fa-phone"></i></h1>\\n            <p class="center">(831) 459-1445</p>\\n            <button class="commentCard">\\n            <a href="http://diningcomment.ucsc.edu/">Dining Comment Card</a><br />\\n            </button>\\n        </div>\\n    </div>\\n    <div class="faq-container">\\n        <div id="faq" class="faq">\\n            <h1 class="center">Frequently Asked Questions</h1>\\n            <hr class="lightgrey"/>\\n            <div class="question">What types of payment methods are accepted?</div>\\n            <div class="answer">Flexi dollars, meal equivalencies, cash, credit, and debit cards.</div>\\n            <div class="question">Do you deliver?</div>\\n            <div class="answer">Currently Banana Joe\\\'s does not deliver food. After ordering food you must pick up your\\n            order in person.</div>\\n        </div>\\n    </div>\\n\', escape=False)\n    pass\nresponse.write(\'\\n\\n\', escape=False)\nif auth.user is not None:\n    response.write(\'\\n    <div class="profile-container">\\n\\n        </div> \\n\\n\\n\', escape=False)\n    response.write(\'\\n\\t\\t</main>\\n\\n            <footer class="ft">\\n\\t\\t    <div class="bot-text">\\n                <p>Banana Joe\\\'s is managed by UCSC Dining.<br />\\n                Do you have questions, comments, or concerns? Please feel free to contact us or\\n                fill out a comment card online. <a href="#">Contact Us</a>&nbsp;|&nbsp;<a href="#">Dining\\n                Comment Card</a></p>\\n            </div>\\n            <div class="bot-bar">\\n                <div class="bot-text">\\n                    &copy; <script type="text/javascript">\\n                    var d = new Date();\\n                    document.write(d.getFullYear());\\n                    </script> Banana Joe\\\'s. All Rights Reserved.\\n                    <a href="#" class="terms">Terms of Service</a>\\n                    <a href="#" class="privacy">Privacy Statement</a>\\n                </div>\\n            </div>\\n        </footer>\\n\\t</body>\\n    <script src="\', escape=False)\n    response.write(URL(\'static\',\'js/marked.min.js\'))\n    response.write(\'"></script>\\n    <script src="\', escape=False)\n    response.write(URL(\'static\',\'js/vue.min.js\'))\n    response.write(\'"></script>\\n    \', escape=False)\n    response.write("\\n    <script>\\n        jQuery(\'.social a\').each(function(){var t=jQuery(this); t.attr(\'href\',t.attr(\'href\').replace(\'{url}\',encodeURIComponent(window.location.href)));});\\n    </script>\\n</html>\\n", escape=False)'
p7
sS'snapshot'
p8
(dp9
sS'traceback'
p10
S'None\n'
p11
s.